
_main:

;Practica1a.c,1 :: 		void main() {
;Practica1a.c,3 :: 		ADCON1 = 0x07;
	MOVLW       7
	MOVWF       ADCON1+0 
;Practica1a.c,4 :: 		TRISC = 0;
	CLRF        TRISC+0 
;Practica1a.c,5 :: 		PORTC = 0;
	CLRF        PORTC+0 
;Practica1a.c,6 :: 		while(1){
L_main0:
;Practica1a.c,7 :: 		PORTC.B0 = 1;
	BSF         PORTC+0, 0 
;Practica1a.c,8 :: 		delay_ms(200);
	MOVLW       3
	MOVWF       R11, 0
	MOVLW       8
	MOVWF       R12, 0
	MOVLW       119
	MOVWF       R13, 0
L_main2:
	DECFSZ      R13, 1, 1
	BRA         L_main2
	DECFSZ      R12, 1, 1
	BRA         L_main2
	DECFSZ      R11, 1, 1
	BRA         L_main2
;Practica1a.c,9 :: 		PORTC.B0 = 0;
	BCF         PORTC+0, 0 
;Practica1a.c,10 :: 		delay_ms(100);
	MOVLW       2
	MOVWF       R11, 0
	MOVLW       4
	MOVWF       R12, 0
	MOVLW       186
	MOVWF       R13, 0
L_main3:
	DECFSZ      R13, 1, 1
	BRA         L_main3
	DECFSZ      R12, 1, 1
	BRA         L_main3
	DECFSZ      R11, 1, 1
	BRA         L_main3
	NOP
;Practica1a.c,12 :: 		PORTC.B1 = 1;
	BSF         PORTC+0, 1 
;Practica1a.c,13 :: 		delay_ms(200);
	MOVLW       3
	MOVWF       R11, 0
	MOVLW       8
	MOVWF       R12, 0
	MOVLW       119
	MOVWF       R13, 0
L_main4:
	DECFSZ      R13, 1, 1
	BRA         L_main4
	DECFSZ      R12, 1, 1
	BRA         L_main4
	DECFSZ      R11, 1, 1
	BRA         L_main4
;Practica1a.c,14 :: 		PORTC.B1 = 0;
	BCF         PORTC+0, 1 
;Practica1a.c,15 :: 		delay_ms(100);
	MOVLW       2
	MOVWF       R11, 0
	MOVLW       4
	MOVWF       R12, 0
	MOVLW       186
	MOVWF       R13, 0
L_main5:
	DECFSZ      R13, 1, 1
	BRA         L_main5
	DECFSZ      R12, 1, 1
	BRA         L_main5
	DECFSZ      R11, 1, 1
	BRA         L_main5
	NOP
;Practica1a.c,17 :: 		PORTC.B2 = 1;
	BSF         PORTC+0, 2 
;Practica1a.c,18 :: 		delay_ms(200);
	MOVLW       3
	MOVWF       R11, 0
	MOVLW       8
	MOVWF       R12, 0
	MOVLW       119
	MOVWF       R13, 0
L_main6:
	DECFSZ      R13, 1, 1
	BRA         L_main6
	DECFSZ      R12, 1, 1
	BRA         L_main6
	DECFSZ      R11, 1, 1
	BRA         L_main6
;Practica1a.c,19 :: 		PORTC.B2 = 0;
	BCF         PORTC+0, 2 
;Practica1a.c,20 :: 		delay_ms(100);
	MOVLW       2
	MOVWF       R11, 0
	MOVLW       4
	MOVWF       R12, 0
	MOVLW       186
	MOVWF       R13, 0
L_main7:
	DECFSZ      R13, 1, 1
	BRA         L_main7
	DECFSZ      R12, 1, 1
	BRA         L_main7
	DECFSZ      R11, 1, 1
	BRA         L_main7
	NOP
;Practica1a.c,22 :: 		PORTC.B3 = 1;
	BSF         PORTC+0, 3 
;Practica1a.c,23 :: 		delay_ms(200);
	MOVLW       3
	MOVWF       R11, 0
	MOVLW       8
	MOVWF       R12, 0
	MOVLW       119
	MOVWF       R13, 0
L_main8:
	DECFSZ      R13, 1, 1
	BRA         L_main8
	DECFSZ      R12, 1, 1
	BRA         L_main8
	DECFSZ      R11, 1, 1
	BRA         L_main8
;Practica1a.c,24 :: 		PORTC.B3 = 0;
	BCF         PORTC+0, 3 
;Practica1a.c,25 :: 		delay_ms(100);
	MOVLW       2
	MOVWF       R11, 0
	MOVLW       4
	MOVWF       R12, 0
	MOVLW       186
	MOVWF       R13, 0
L_main9:
	DECFSZ      R13, 1, 1
	BRA         L_main9
	DECFSZ      R12, 1, 1
	BRA         L_main9
	DECFSZ      R11, 1, 1
	BRA         L_main9
	NOP
;Practica1a.c,27 :: 		PORTC.B4 = 1;
	BSF         PORTC+0, 4 
;Practica1a.c,28 :: 		delay_ms(200);
	MOVLW       3
	MOVWF       R11, 0
	MOVLW       8
	MOVWF       R12, 0
	MOVLW       119
	MOVWF       R13, 0
L_main10:
	DECFSZ      R13, 1, 1
	BRA         L_main10
	DECFSZ      R12, 1, 1
	BRA         L_main10
	DECFSZ      R11, 1, 1
	BRA         L_main10
;Practica1a.c,29 :: 		PORTC.B4 = 0;
	BCF         PORTC+0, 4 
;Practica1a.c,30 :: 		delay_ms(100);
	MOVLW       2
	MOVWF       R11, 0
	MOVLW       4
	MOVWF       R12, 0
	MOVLW       186
	MOVWF       R13, 0
L_main11:
	DECFSZ      R13, 1, 1
	BRA         L_main11
	DECFSZ      R12, 1, 1
	BRA         L_main11
	DECFSZ      R11, 1, 1
	BRA         L_main11
	NOP
;Practica1a.c,32 :: 		PORTC.B5 = 1;
	BSF         PORTC+0, 5 
;Practica1a.c,33 :: 		delay_ms(200);
	MOVLW       3
	MOVWF       R11, 0
	MOVLW       8
	MOVWF       R12, 0
	MOVLW       119
	MOVWF       R13, 0
L_main12:
	DECFSZ      R13, 1, 1
	BRA         L_main12
	DECFSZ      R12, 1, 1
	BRA         L_main12
	DECFSZ      R11, 1, 1
	BRA         L_main12
;Practica1a.c,34 :: 		PORTC.B5 = 0;
	BCF         PORTC+0, 5 
;Practica1a.c,35 :: 		delay_ms(100);
	MOVLW       2
	MOVWF       R11, 0
	MOVLW       4
	MOVWF       R12, 0
	MOVLW       186
	MOVWF       R13, 0
L_main13:
	DECFSZ      R13, 1, 1
	BRA         L_main13
	DECFSZ      R12, 1, 1
	BRA         L_main13
	DECFSZ      R11, 1, 1
	BRA         L_main13
	NOP
;Practica1a.c,37 :: 		PORTC.B6 = 1;
	BSF         PORTC+0, 6 
;Practica1a.c,38 :: 		delay_ms(200);
	MOVLW       3
	MOVWF       R11, 0
	MOVLW       8
	MOVWF       R12, 0
	MOVLW       119
	MOVWF       R13, 0
L_main14:
	DECFSZ      R13, 1, 1
	BRA         L_main14
	DECFSZ      R12, 1, 1
	BRA         L_main14
	DECFSZ      R11, 1, 1
	BRA         L_main14
;Practica1a.c,39 :: 		PORTC.B6 = 0;
	BCF         PORTC+0, 6 
;Practica1a.c,40 :: 		delay_ms(100);
	MOVLW       2
	MOVWF       R11, 0
	MOVLW       4
	MOVWF       R12, 0
	MOVLW       186
	MOVWF       R13, 0
L_main15:
	DECFSZ      R13, 1, 1
	BRA         L_main15
	DECFSZ      R12, 1, 1
	BRA         L_main15
	DECFSZ      R11, 1, 1
	BRA         L_main15
	NOP
;Practica1a.c,42 :: 		PORTC.B7 = 1;
	BSF         PORTC+0, 7 
;Practica1a.c,43 :: 		delay_ms(200);
	MOVLW       3
	MOVWF       R11, 0
	MOVLW       8
	MOVWF       R12, 0
	MOVLW       119
	MOVWF       R13, 0
L_main16:
	DECFSZ      R13, 1, 1
	BRA         L_main16
	DECFSZ      R12, 1, 1
	BRA         L_main16
	DECFSZ      R11, 1, 1
	BRA         L_main16
;Practica1a.c,44 :: 		PORTC.B7 = 0;
	BCF         PORTC+0, 7 
;Practica1a.c,45 :: 		delay_ms(100);
	MOVLW       2
	MOVWF       R11, 0
	MOVLW       4
	MOVWF       R12, 0
	MOVLW       186
	MOVWF       R13, 0
L_main17:
	DECFSZ      R13, 1, 1
	BRA         L_main17
	DECFSZ      R12, 1, 1
	BRA         L_main17
	DECFSZ      R11, 1, 1
	BRA         L_main17
	NOP
;Practica1a.c,47 :: 		}
	GOTO        L_main0
;Practica1a.c,50 :: 		}
L_end_main:
	GOTO        $+0
; end of _main
